target datalayout = "e-m:e-p270:32:32-p271:32:32-p272:64:64-i64:64-i128:128-f80:128-n8:16:32:64-S128"
target triple = "x86_64-pc-linux-gnu"

%"class.icu_77::StringPiece" = type <{ ptr, i32, [4 x i8] }>
%"class.icu_77::CheckedArrayByteSink" = type <{ %"class.icu_77::ByteSink", ptr, i32, i32, i32, i8, [3 x i8] }>
%"class.icu_77::ByteSink" = type { ptr }
%class.anon.0 = type { ptr, ptr, ptr }

; Function Attrs: mustprogress nounwind uwtable
define linkonce_odr void @_ZN6icu_7711StringPieceC2EPKci(ptr noundef nonnull align 8 dereferenceable(12) %0, ptr noundef %1, i32 noundef %2) unnamed_addr #0 comdat align 2 {
  %4 = alloca ptr, align 8
  %5 = alloca ptr, align 8
  %6 = alloca i32, align 4
  store ptr %0, ptr %4, align 8, !tbaa !23
  store ptr %1, ptr %5, align 8, !tbaa !17
  store i32 %2, ptr %6, align 4, !tbaa !14
  %7 = load ptr, ptr %4, align 8
  %8 = getelementptr inbounds nuw %"class.icu_77::StringPiece", ptr %7, i32 0, i32 0
  %9 = load ptr, ptr %5, align 8, !tbaa !17
  store ptr %9, ptr %8, align 8, !tbaa !25
  %10 = getelementptr inbounds nuw %"class.icu_77::StringPiece", ptr %7, i32 0, i32 1
  %11 = load i32, ptr %6, align 4, !tbaa !14
  store i32 %11, ptr %10, align 8, !tbaa !27
  ret void
}

; Function Attrs: mustprogress nounwind uwtable
define linkonce_odr noundef signext i8 @_ZNK6icu_7720CheckedArrayByteSink10OverflowedEv(ptr noundef nonnull align 8 dereferenceable(29) %0) #0 comdat align 2 {
  %2 = alloca ptr, align 8
  store ptr %0, ptr %2, align 8, !tbaa !51
  %3 = load ptr, ptr %2, align 8
  %4 = getelementptr inbounds nuw %"class.icu_77::CheckedArrayByteSink", ptr %3, i32 0, i32 5
  %5 = load i8, ptr %4, align 4, !tbaa !56
  ret i8 %5
}

; Function Attrs: mustprogress nounwind uwtable
define linkonce_odr noundef i32 @_ZNK6icu_7720CheckedArrayByteSink21NumberOfBytesAppendedEv(ptr noundef nonnull align 8 dereferenceable(29) %0) #0 comdat align 2 {
  %2 = alloca ptr, align 8
  store ptr %0, ptr %2, align 8, !tbaa !51
  %3 = load ptr, ptr %2, align 8
  %4 = getelementptr inbounds nuw %"class.icu_77::CheckedArrayByteSink", ptr %3, i32 0, i32 4
  %5 = load i32, ptr %4, align 8, !tbaa !53
  ret i32 %5
}

; Function Attrs: inlinehint mustprogress uwtable
define internal void @"_ZZ33ulocale_getUnicodeKeywordValue_77ENK3$_0clERN6icu_778ByteSinkER10UErrorCode"(ptr noundef nonnull align 8 dereferenceable(24) %0, ptr noundef nonnull align 8 dereferenceable(8) %1, ptr noundef nonnull align 4 dereferenceable(4) %2) #3 align 2 {
  %4 = alloca ptr, align 8
  %5 = alloca ptr, align 8
  %6 = alloca ptr, align 8
  %7 = alloca %"class.icu_77::StringPiece", align 8
  store ptr %0, ptr %4, align 8, !tbaa !22
  store ptr %1, ptr %5, align 8, !tbaa !45
  store ptr %2, ptr %6, align 8, !tbaa !22
  %8 = load ptr, ptr %4, align 8
  %9 = getelementptr inbounds nuw %class.anon.0, ptr %8, i32 0, i32 0
  %10 = load ptr, ptr %9, align 8, !tbaa !57
  %11 = load ptr, ptr %10, align 8, !tbaa !28
  %12 = getelementptr inbounds nuw %class.anon.0, ptr %8, i32 0, i32 1
  %13 = load ptr, ptr %12, align 8, !tbaa !59
  %14 = load i32, ptr %13, align 4, !tbaa !14
  %15 = icmp slt i32 %14, 0
  br i1 %15, label %16, label %20

16:                                               ; preds = %3
  %17 = getelementptr inbounds nuw %class.anon.0, ptr %8, i32 0, i32 2
  %18 = load ptr, ptr %17, align 8, !tbaa !60
  %19 = load ptr, ptr %18, align 8, !tbaa !17
  call void @_ZN6icu_7711StringPieceC1EPKc(ptr noundef nonnull align 8 dereferenceable(12) %7, ptr noundef %19)
  br label %27

20:                                               ; preds = %3
  %21 = getelementptr inbounds nuw %class.anon.0, ptr %8, i32 0, i32 2
  %22 = load ptr, ptr %21, align 8, !tbaa !60
  %23 = load ptr, ptr %22, align 8, !tbaa !17
  %24 = getelementptr inbounds nuw %class.anon.0, ptr %8, i32 0, i32 1
  %25 = load ptr, ptr %24, align 8, !tbaa !59
  %26 = load i32, ptr %25, align 4, !tbaa !14
  call void @_ZN6icu_7711StringPieceC2EPKci(ptr noundef nonnull align 8 dereferenceable(12) %7, ptr noundef %23, i32 noundef %26)
  br label %27

27:                                               ; preds = %20, %16
  %28 = load ptr, ptr %5, align 8, !tbaa !45
  %29 = load ptr, ptr %6, align 8, !tbaa !22
  %30 = getelementptr inbounds nuw { ptr, i32 }, ptr %7, i32 0, i32 0
  %31 = load ptr, ptr %30, align 8
  %32 = getelementptr inbounds nuw { ptr, i32 }, ptr %7, i32 0, i32 1
  %33 = load i32, ptr %32, align 8
  call void @_ZNK6icu_776Locale22getUnicodeKeywordValueENS_11StringPieceERNS_8ByteSinkER10UErrorCode(ptr noundef nonnull align 8 dereferenceable(217) %11, ptr %31, i32 %33, ptr noundef nonnull align 8 dereferenceable(8) %28, ptr noundef nonnull align 4 dereferenceable(4) %29)
  ret void
}

; Function Attrs: mustprogress uwtable
define internal noundef i32 @"_ZN6icu_7712ByteSinkUtil28viaByteSinkToTerminatedCharsIZ33ulocale_getUnicodeKeywordValue_77E3$_0vEEiPciOT_R10UErrorCode"(ptr noundef %0, i32 noundef %1, ptr noundef nonnull align 8 dereferenceable(24) %2, ptr noundef nonnull align 4 dereferenceable(4) %3) #1 align 2 personality ptr @__gxx_personality_v0 {
  %5 = alloca i32, align 4
  %6 = alloca ptr, align 8
  %7 = alloca i32, align 4
  %8 = alloca ptr, align 8
  %9 = alloca ptr, align 8
  %10 = alloca %"class.icu_77::CheckedArrayByteSink", align 8
  %11 = alloca ptr, align 8
  %12 = alloca i32, align 4
  %13 = alloca i32, align 4
  %14 = alloca i32, align 4
  store ptr %0, ptr %6, align 8, !tbaa !17
  store i32 %1, ptr %7, align 4, !tbaa !14
  store ptr %2, ptr %8, align 8, !tbaa !22
  store ptr %3, ptr %9, align 8, !tbaa !22
  %15 = load ptr, ptr %9, align 8, !tbaa !22
  %16 = load i32, ptr %15, align 4, !tbaa !15
  %17 = call noundef signext i8 @_ZL9U_FAILURE10UErrorCode(i32 noundef %16)
  %18 = icmp ne i8 %17, 0
  br i1 %18, label %19, label %20

19:                                               ; preds = %4
  store i32 0, ptr %5, align 4
  br label %56

20:                                               ; preds = %4
  call void @llvm.lifetime.start.p0(i64 32, ptr %10) #10
  %21 = load ptr, ptr %6, align 8, !tbaa !17
  %22 = load i32, ptr %7, align 4, !tbaa !14
  call void @_ZN6icu_7720CheckedArrayByteSinkC1EPci(ptr noundef nonnull align 8 dereferenceable(29) %10, ptr noundef %21, i32 noundef %22)
  %23 = load ptr, ptr %8, align 8, !tbaa !22
  %24 = load ptr, ptr %9, align 8, !tbaa !22
  invoke void @"_ZZ33ulocale_getUnicodeKeywordValue_77ENK3$_0clERN6icu_778ByteSinkER10UErrorCode"(ptr noundef nonnull align 8 dereferenceable(24) %23, ptr noundef nonnull align 8 dereferenceable(8) %10, ptr noundef nonnull align 4 dereferenceable(4) %24)
          to label %25 unwind label %31

25:                                               ; preds = %20
  %26 = load ptr, ptr %9, align 8, !tbaa !22
  %27 = load i32, ptr %26, align 4, !tbaa !15
  %28 = call noundef signext i8 @_ZL9U_FAILURE10UErrorCode(i32 noundef %27)
  %29 = icmp ne i8 %28, 0
  br i1 %29, label %30, label %35

30:                                               ; preds = %25
  store i32 0, ptr %5, align 4
  store i32 1, ptr %13, align 4
  br label %54

31:                                               ; preds = %20
  %32 = landingpad { ptr, i32 }
          cleanup
  %33 = extractvalue { ptr, i32 } %32, 0
  store ptr %33, ptr %11, align 8
  %34 = extractvalue { ptr, i32 } %32, 1
  store i32 %34, ptr %12, align 4
  br label %55

35:                                               ; preds = %25
  call void @llvm.lifetime.start.p0(i64 4, ptr %14) #10
  %36 = call noundef i32 @_ZNK6icu_7720CheckedArrayByteSink21NumberOfBytesAppendedEv(ptr noundef nonnull align 8 dereferenceable(29) %10)
  store i32 %36, ptr %14, align 4, !tbaa !14
  %37 = call noundef signext i8 @_ZNK6icu_7720CheckedArrayByteSink10OverflowedEv(ptr noundef nonnull align 8 dereferenceable(29) %10)
  %38 = icmp ne i8 %37, 0
  br i1 %38, label %39, label %42

39:                                               ; preds = %35
  %40 = load ptr, ptr %9, align 8, !tbaa !22
  store i32 15, ptr %40, align 4, !tbaa !15
  %41 = load i32, ptr %14, align 4, !tbaa !14
  store i32 %41, ptr %5, align 4
  store i32 1, ptr %13, align 4
  br label %53

42:                                               ; preds = %35
  %43 = load ptr, ptr %6, align 8, !tbaa !17
  %44 = load i32, ptr %7, align 4, !tbaa !14
  %45 = load i32, ptr %14, align 4, !tbaa !14
  %46 = load ptr, ptr %9, align 8, !tbaa !22
  %47 = invoke i32 @u_terminateChars_77(ptr noundef %43, i32 noundef %44, i32 noundef %45, ptr noundef %46)
          to label %48 unwind label %49

48:                                               ; preds = %42
  store i32 %47, ptr %5, align 4
  store i32 1, ptr %13, align 4
  br label %53

49:                                               ; preds = %42
  %50 = landingpad { ptr, i32 }
          cleanup
  %51 = extractvalue { ptr, i32 } %50, 0
  store ptr %51, ptr %11, align 8
  %52 = extractvalue { ptr, i32 } %50, 1
  store i32 %52, ptr %12, align 4
  call void @llvm.lifetime.end.p0(i64 4, ptr %14) #10
  br label %55

53:                                               ; preds = %48, %39
  call void @llvm.lifetime.end.p0(i64 4, ptr %14) #10
  br label %54

54:                                               ; preds = %53, %30
  call void @_ZN6icu_7720CheckedArrayByteSinkD1Ev(ptr noundef nonnull align 8 dereferenceable(29) %10) #10
  call void @llvm.lifetime.end.p0(i64 32, ptr %10) #10
  br label %56

55:                                               ; preds = %49, %31
  call void @_ZN6icu_7720CheckedArrayByteSinkD1Ev(ptr noundef nonnull align 8 dereferenceable(29) %10) #10
  call void @llvm.lifetime.end.p0(i64 32, ptr %10) #10
  br label %58

56:                                               ; preds = %54, %19
  %57 = load i32, ptr %5, align 4
  ret i32 %57

58:                                               ; preds = %55
  %59 = load ptr, ptr %11, align 8
  %60 = load i32, ptr %12, align 4
  %61 = insertvalue { ptr, i32 } poison, ptr %59, 0
  %62 = insertvalue { ptr, i32 } %61, i32 %60, 1
  resume { ptr, i32 } %62
}

; Function Attrs: inlinehint mustprogress nounwind uwtable
define internal noundef signext i8 @_ZL9U_FAILURE10UErrorCode(i32 noundef %0) #2 {
  %2 = alloca i32, align 4
  store i32 %0, ptr %2, align 4, !tbaa !15
  %3 = load i32, ptr %2, align 4, !tbaa !15
  %4 = icmp sgt i32 %3, 0
  %5 = zext i1 %4 to i8
  ret i8 %5
}

; Function Attrs: mustprogress uwtable
define i32 @ulocale_getUnicodeKeywordValue_77(ptr noundef %0, ptr noundef %1, i32 noundef %2, ptr noundef %3, i32 noundef %4, ptr noundef %5) #1 {
  %7 = alloca i32, align 4
  %8 = alloca ptr, align 8
  %9 = alloca ptr, align 8
  %10 = alloca i32, align 4
  %11 = alloca ptr, align 8
  %12 = alloca i32, align 4
  %13 = alloca ptr, align 8
  %14 = alloca %class.anon.0, align 8
  store ptr %0, ptr %8, align 8, !tbaa !28
  store ptr %1, ptr %9, align 8, !tbaa !17
  store i32 %2, ptr %10, align 4, !tbaa !14
  store ptr %3, ptr %11, align 8, !tbaa !17
  store i32 %4, ptr %12, align 4, !tbaa !14
  store ptr %5, ptr %13, align 8, !tbaa !22
  %15 = load ptr, ptr %13, align 8, !tbaa !22
  %16 = load i32, ptr %15, align 4, !tbaa !15
  %17 = call noundef signext i8 @_ZL9U_FAILURE10UErrorCode(i32 noundef %16)
  %18 = icmp ne i8 %17, 0
  br i1 %18, label %19, label %20

19:                                               ; preds = %6
  store i32 0, ptr %7, align 4
  br label %33

20:                                               ; preds = %6
  %21 = load ptr, ptr %8, align 8, !tbaa !28
  %22 = icmp eq ptr %21, null
  br i1 %22, label %23, label %25

23:                                               ; preds = %20
  %24 = load ptr, ptr %13, align 8, !tbaa !22
  store i32 1, ptr %24, align 4, !tbaa !15
  store i32 0, ptr %7, align 4
  br label %33

25:                                               ; preds = %20
  %26 = load ptr, ptr %11, align 8, !tbaa !17
  %27 = load i32, ptr %12, align 4, !tbaa !14
  call void @llvm.lifetime.start.p0(i64 24, ptr %14) #10
  %28 = getelementptr inbounds nuw %class.anon.0, ptr %14, i32 0, i32 0
  store ptr %8, ptr %28, align 8, !tbaa !40
  %29 = getelementptr inbounds nuw %class.anon.0, ptr %14, i32 0, i32 1
  store ptr %10, ptr %29, align 8, !tbaa !20
  %30 = getelementptr inbounds nuw %class.anon.0, ptr %14, i32 0, i32 2
  store ptr %9, ptr %30, align 8, !tbaa !43
  %31 = load ptr, ptr %13, align 8, !tbaa !22
  %32 = call noundef i32 @"_ZN6icu_7712ByteSinkUtil28viaByteSinkToTerminatedCharsIZ33ulocale_getUnicodeKeywordValue_77E3$_0vEEiPciOT_R10UErrorCode"(ptr noundef %26, i32 noundef %27, ptr noundef nonnull align 8 dereferenceable(24) %14, ptr noundef nonnull align 4 dereferenceable(4) %31)
  store i32 %32, ptr %7, align 4
  call void @llvm.lifetime.end.p0(i64 24, ptr %14) #10
  br label %33

33:                                               ; preds = %25, %23, %19
  %34 = load i32, ptr %7, align 4
  ret i32 %34
}